target datalayout = "e-m:e-p270:32:32-p271:32:32-p272:64:64-i64:64-i128:128-f80:128-n8:16:32:64-S128"
target triple = "x86_64-pc-linux-gnu"

; Function Attrs: nounwind uwtable
define internal i32 @apply_case_fold1(i32 noundef %0, i32 noundef %1, i32 noundef %2, ptr noundef %3, ptr noundef %4) #0 {
  %6 = alloca i32, align 4
  %7 = alloca i32, align 4
  %8 = alloca i32, align 4
  %9 = alloca i32, align 4
  %10 = alloca ptr, align 8
  %11 = alloca ptr, align 8
  %12 = alloca i32, align 4
  %13 = alloca i32, align 4
  %14 = alloca i32, align 4
  %15 = alloca i32, align 4
  %16 = alloca i32, align 4
  %17 = alloca i32, align 4
  %18 = alloca i32, align 4
  %19 = alloca i32, align 4
  %20 = alloca i32, align 4
  store i32 %0, ptr %7, align 4, !tbaa !9
  store i32 %1, ptr %8, align 4, !tbaa !9
  store i32 %2, ptr %9, align 4, !tbaa !9
  store ptr %3, ptr %10, align 8, !tbaa !31
  store ptr %4, ptr %11, align 8, !tbaa !31
  call void @llvm.lifetime.start.p0(i64 4, ptr %12) #7
  call void @llvm.lifetime.start.p0(i64 4, ptr %13) #7
  call void @llvm.lifetime.start.p0(i64 4, ptr %14) #7
  call void @llvm.lifetime.start.p0(i64 4, ptr %15) #7
  call void @llvm.lifetime.start.p0(i64 4, ptr %16) #7
  %21 = load i32, ptr %8, align 4, !tbaa !9
  store i32 %21, ptr %12, align 4, !tbaa !9
  br label %22

22:                                               ; preds = %146, %5
  %23 = load i32, ptr %12, align 4, !tbaa !9
  %24 = load i32, ptr %9, align 4, !tbaa !9
  %25 = icmp slt i32 %23, %24
  br i1 %25, label %26, label %147

26:                                               ; preds = %22
  call void @llvm.lifetime.start.p0(i64 4, ptr %17) #7
  %27 = load i32, ptr %12, align 4, !tbaa !9
  %28 = sext i32 %27 to i64
  %29 = getelementptr inbounds i32, ptr @OnigUnicodeFolds1, i64 %28
  %30 = load i32, ptr %29, align 4, !tbaa !9
  store i32 %30, ptr %17, align 4, !tbaa !9
  %31 = load i32, ptr %7, align 4, !tbaa !9
  %32 = and i32 %31, 1
  %33 = icmp ne i32 %32, 0
  br i1 %33, label %34, label %38

34:                                               ; preds = %26
  %35 = load i32, ptr %17, align 4, !tbaa !9
  %36 = icmp ult i32 %35, 128
  br i1 %36, label %38, label %37

37:                                               ; preds = %34
  store i32 2, ptr %18, align 4
  br label %144

38:                                               ; preds = %34, %26
  %39 = load i32, ptr %12, align 4, !tbaa !9
  %40 = add nsw i32 %39, 1
  %41 = sext i32 %40 to i64
  %42 = getelementptr inbounds [4299 x i32], ptr @OnigUnicodeFolds1, i64 0, i64 %41
  %43 = load i32, ptr %42, align 4, !tbaa !9
  store i32 %43, ptr %15, align 4, !tbaa !9
  store i32 0, ptr %13, align 4, !tbaa !9
  br label %44

44:                                               ; preds = %132, %38
  %45 = load i32, ptr %13, align 4, !tbaa !9
  %46 = load i32, ptr %15, align 4, !tbaa !9
  %47 = icmp slt i32 %45, %46
  br i1 %47, label %48, label %135

48:                                               ; preds = %44
  call void @llvm.lifetime.start.p0(i64 4, ptr %19) #7
  %49 = load i32, ptr %12, align 4, !tbaa !9
  %50 = sext i32 %49 to i64
  %51 = getelementptr inbounds i32, ptr @OnigUnicodeFolds1, i64 %50
  %52 = getelementptr inbounds i32, ptr %51, i64 2
  %53 = load i32, ptr %13, align 4, !tbaa !9
  %54 = sext i32 %53 to i64
  %55 = getelementptr inbounds i32, ptr %52, i64 %54
  %56 = load i32, ptr %55, align 4, !tbaa !9
  store i32 %56, ptr %19, align 4, !tbaa !9
  %57 = load i32, ptr %7, align 4, !tbaa !9
  %58 = and i32 %57, 1
  %59 = icmp ne i32 %58, 0
  br i1 %59, label %60, label %64

60:                                               ; preds = %48
  %61 = load i32, ptr %19, align 4, !tbaa !9
  %62 = icmp ult i32 %61, 128
  br i1 %62, label %64, label %63

63:                                               ; preds = %60
  store i32 6, ptr %18, align 4
  br label %129

64:                                               ; preds = %60, %48
  %65 = load ptr, ptr %10, align 8, !tbaa !31
  %66 = load i32, ptr %17, align 4, !tbaa !9
  %67 = load ptr, ptr %11, align 8, !tbaa !31
  %68 = call i32 %65(i32 noundef %66, ptr noundef %19, i32 noundef 1, ptr noundef %67)
  store i32 %68, ptr %16, align 4, !tbaa !9
  %69 = load i32, ptr %16, align 4, !tbaa !9
  %70 = icmp ne i32 %69, 0
  br i1 %70, label %71, label %73

71:                                               ; preds = %64
  %72 = load i32, ptr %16, align 4, !tbaa !9
  store i32 %72, ptr %6, align 4
  store i32 1, ptr %18, align 4
  br label %129

73:                                               ; preds = %64
  %74 = load ptr, ptr %10, align 8, !tbaa !31
  %75 = load i32, ptr %19, align 4, !tbaa !9
  %76 = load ptr, ptr %11, align 8, !tbaa !31
  %77 = call i32 %74(i32 noundef %75, ptr noundef %17, i32 noundef 1, ptr noundef %76)
  store i32 %77, ptr %16, align 4, !tbaa !9
  %78 = load i32, ptr %16, align 4, !tbaa !9
  %79 = icmp ne i32 %78, 0
  br i1 %79, label %80, label %82

80:                                               ; preds = %73
  %81 = load i32, ptr %16, align 4, !tbaa !9
  store i32 %81, ptr %6, align 4
  store i32 1, ptr %18, align 4
  br label %129

82:                                               ; preds = %73
  store i32 0, ptr %14, align 4, !tbaa !9
  br label %83

83:                                               ; preds = %125, %82
  %84 = load i32, ptr %14, align 4, !tbaa !9
  %85 = load i32, ptr %13, align 4, !tbaa !9
  %86 = icmp slt i32 %84, %85
  br i1 %86, label %87, label %128

87:                                               ; preds = %83
  call void @llvm.lifetime.start.p0(i64 4, ptr %20) #7
  %88 = load i32, ptr %12, align 4, !tbaa !9
  %89 = sext i32 %88 to i64
  %90 = getelementptr inbounds i32, ptr @OnigUnicodeFolds1, i64 %89
  %91 = getelementptr inbounds i32, ptr %90, i64 2
  %92 = load i32, ptr %14, align 4, !tbaa !9
  %93 = sext i32 %92 to i64
  %94 = getelementptr inbounds i32, ptr %91, i64 %93
  %95 = load i32, ptr %94, align 4, !tbaa !9
  store i32 %95, ptr %20, align 4, !tbaa !9
  %96 = load i32, ptr %7, align 4, !tbaa !9
  %97 = and i32 %96, 1
  %98 = icmp ne i32 %97, 0
  br i1 %98, label %99, label %103

99:                                               ; preds = %87
  %100 = load i32, ptr %20, align 4, !tbaa !9
  %101 = icmp ult i32 %100, 128
  br i1 %101, label %103, label %102

102:                                              ; preds = %99
  store i32 9, ptr %18, align 4
  br label %122

103:                                              ; preds = %99, %87
  %104 = load ptr, ptr %10, align 8, !tbaa !31
  %105 = load i32, ptr %19, align 4, !tbaa !9
  %106 = load ptr, ptr %11, align 8, !tbaa !31
  %107 = call i32 %104(i32 noundef %105, ptr noundef %20, i32 noundef 1, ptr noundef %106)
  store i32 %107, ptr %16, align 4, !tbaa !9
  %108 = load i32, ptr %16, align 4, !tbaa !9
  %109 = icmp ne i32 %108, 0
  br i1 %109, label %110, label %112

110:                                              ; preds = %103
  %111 = load i32, ptr %16, align 4, !tbaa !9
  store i32 %111, ptr %6, align 4
  store i32 1, ptr %18, align 4
  br label %122

112:                                              ; preds = %103
  %113 = load ptr, ptr %10, align 8, !tbaa !31
  %114 = load i32, ptr %20, align 4, !tbaa !9
  %115 = load ptr, ptr %11, align 8, !tbaa !31
  %116 = call i32 %113(i32 noundef %114, ptr noundef %19, i32 noundef 1, ptr noundef %115)
  store i32 %116, ptr %16, align 4, !tbaa !9
  %117 = load i32, ptr %16, align 4, !tbaa !9
  %118 = icmp ne i32 %117, 0
  br i1 %118, label %119, label %121

119:                                              ; preds = %112
  %120 = load i32, ptr %16, align 4, !tbaa !9
  store i32 %120, ptr %6, align 4
  store i32 1, ptr %18, align 4
  br label %122

121:                                              ; preds = %112
  store i32 0, ptr %18, align 4
  br label %122

122:                                              ; preds = %121, %119, %110, %102
  call void @llvm.lifetime.end.p0(i64 4, ptr %20) #7
  %123 = load i32, ptr %18, align 4
  switch i32 %123, label %129 [
    i32 0, label %124
    i32 9, label %125
  ]

124:                                              ; preds = %122
  br label %125

125:                                              ; preds = %124, %122
  %126 = load i32, ptr %14, align 4, !tbaa !9
  %127 = add nsw i32 %126, 1
  store i32 %127, ptr %14, align 4, !tbaa !9
  br label %83, !llvm.loop !32

128:                                              ; preds = %83
  store i32 0, ptr %18, align 4
  br label %129

129:                                              ; preds = %128, %122, %80, %71, %63
  call void @llvm.lifetime.end.p0(i64 4, ptr %19) #7
  %130 = load i32, ptr %18, align 4
  switch i32 %130, label %144 [
    i32 0, label %131
    i32 6, label %132
  ]

131:                                              ; preds = %129
  br label %132

132:                                              ; preds = %131, %129
  %133 = load i32, ptr %13, align 4, !tbaa !9
  %134 = add nsw i32 %133, 1
  store i32 %134, ptr %13, align 4, !tbaa !9
  br label %44, !llvm.loop !33

135:                                              ; preds = %44
  %136 = load i32, ptr %12, align 4, !tbaa !9
  %137 = add nsw i32 %136, 2
  %138 = load i32, ptr %12, align 4, !tbaa !9
  %139 = add nsw i32 %138, 1
  %140 = sext i32 %139 to i64
  %141 = getelementptr inbounds [4299 x i32], ptr @OnigUnicodeFolds1, i64 0, i64 %140
  %142 = load i32, ptr %141, align 4, !tbaa !9
  %143 = add i32 %137, %142
  store i32 %143, ptr %12, align 4, !tbaa !9
  store i32 0, ptr %18, align 4
  br label %144

144:                                              ; preds = %135, %129, %37
  call void @llvm.lifetime.end.p0(i64 4, ptr %17) #7
  %145 = load i32, ptr %18, align 4
  switch i32 %145, label %148 [
    i32 0, label %146
    i32 2, label %147
  ]

146:                                              ; preds = %144
  br label %22, !llvm.loop !34

147:                                              ; preds = %144, %22
  store i32 0, ptr %6, align 4
  store i32 1, ptr %18, align 4
  br label %148

148:                                              ; preds = %147, %144
  call void @llvm.lifetime.end.p0(i64 4, ptr %16) #7
  call void @llvm.lifetime.end.p0(i64 4, ptr %15) #7
  call void @llvm.lifetime.end.p0(i64 4, ptr %14) #7
  call void @llvm.lifetime.end.p0(i64 4, ptr %13) #7
  call void @llvm.lifetime.end.p0(i64 4, ptr %12) #7
  %149 = load i32, ptr %6, align 4
  ret i32 %149
}